; Function Attrs: nounwind uwtable
define internal ptr @placeholder_new(ptr noundef %0, ptr noundef readonly captures(none) %1, ptr noundef readonly %2) #0 {
  %4 = getelementptr i8, ptr %1, i64 16
  %.val = load i64, ptr %4, align 8, !tbaa !23
  %.not = icmp eq i64 %.val, 0
  br i1 %.not, label %5, label %8

5:                                                ; preds = %3
  %.not16 = icmp eq ptr %2, null
  br i1 %.not16, label %get_functools_state_by_type.exit, label %6

6:                                                ; preds = %5
  %7 = getelementptr i8, ptr %2, i64 16
  %.val19 = load i64, ptr %7, align 8, !tbaa !122
  %.not17 = icmp eq i64 %.val19, 0
  br i1 %.not17, label %get_functools_state_by_type.exit, label %8

8:                                                ; preds = %6, %3
  %9 = load ptr, ptr @PyExc_TypeError, align 8, !tbaa !20
  tail call void @PyErr_SetString(ptr noundef %9, ptr noundef nonnull @.str.16) #9
  br label %_Py_NewRef.exit

get_functools_state_by_type.exit:                 ; preds = %6, %5
  %10 = tail call ptr @PyType_GetModuleByDef(ptr noundef %0, ptr noundef nonnull @_functools_module) #9
  %11 = icmp ne ptr %10, null
  tail call void @llvm.assume(i1 %11)
  %12 = getelementptr i8, ptr %10, i64 32
  %.val.i = load ptr, ptr %12, align 8, !tbaa !4
  %13 = getelementptr inbounds nuw i8, ptr %.val.i, i64 16
  %14 = load ptr, ptr %13, align 8, !tbaa !16
  %.not18 = icmp eq ptr %14, null
  br i1 %.not18, label %20, label %15

15:                                               ; preds = %get_functools_state_by_type.exit
  %16 = load i32, ptr %14, align 8, !tbaa !21
  %17 = icmp slt i32 %16, 0
  br i1 %17, label %_Py_NewRef.exit, label %18

18:                                               ; preds = %15
  %19 = add nuw i32 %16, 1
  store i32 %19, ptr %14, align 8, !tbaa !21
  br label %_Py_NewRef.exit

20:                                               ; preds = %get_functools_state_by_type.exit
  %21 = tail call ptr @PyType_GenericNew(ptr noundef %0, ptr noundef null, ptr noundef null) #9
  %22 = icmp eq ptr %21, null
  br i1 %22, label %_Py_NewRef.exit, label %23

23:                                               ; preds = %20
  %24 = load ptr, ptr %13, align 8, !tbaa !16
  %25 = icmp eq ptr %24, null
  br i1 %25, label %26, label %_Py_NewRef.exit

26:                                               ; preds = %23
  %27 = load i32, ptr %21, align 8, !tbaa !21
  %28 = icmp slt i32 %27, 0
  br i1 %28, label %_Py_NewRef.exit20, label %29

29:                                               ; preds = %26
  %30 = add nuw i32 %27, 1
  store i32 %30, ptr %21, align 8, !tbaa !21
  br label %_Py_NewRef.exit20

_Py_NewRef.exit20:                                ; preds = %26, %29
  store ptr %21, ptr %13, align 8, !tbaa !16
  br label %_Py_NewRef.exit

_Py_NewRef.exit:                                  ; preds = %18, %15, %23, %_Py_NewRef.exit20, %20, %8
  %.0 = phi ptr [ null, %8 ], [ null, %20 ], [ %21, %_Py_NewRef.exit20 ], [ %21, %23 ], [ %14, %15 ], [ %14, %18 ]
  ret ptr %.0
}